; Function Attrs: nounwind uwtable
define internal i32 @dsa_cmp_parameters(ptr noundef readonly captures(none) %0, ptr noundef readonly captures(none) %1) #0 {
  %3 = getelementptr inbounds nuw i8, ptr %0, i64 32
  %4 = load ptr, ptr %3, align 8, !tbaa !29
  %5 = getelementptr inbounds nuw i8, ptr %4, i64 8
  %6 = getelementptr inbounds nuw i8, ptr %1, i64 32
  %7 = load ptr, ptr %6, align 8, !tbaa !29
  %8 = getelementptr inbounds nuw i8, ptr %7, i64 8
  %9 = tail call i32 @ossl_ffc_params_cmp(ptr noundef nonnull %5, ptr noundef nonnull %8, i32 noundef 1) #5
  ret i32 %9
}